(dp0
S'transcript'
p1
(lp2
(lp3
V\u266b Like the heather \u266b
p4
aa(lp5
V\u266b on the hillside \u266b
p6
aa(lp7
V\u266b as they drove us \u266b
p8
aa(lp9
V\u266b from the Highlands \u266b
p10
aa(lp11
V\u266b Like the ice flow \u266b
p12
aa(lp13
V\u266b from the Arctic \u266b
p14
aa(lp15
V\u266b where we landed \u266b
p16
aa(lp17
V\u266b in Newfoundland \u266b
p18
aa(lp19
V\u266b There's a color \u266b
p20
aa(lp21
V\u266b to my sorrow \u266b
p22
aa(lp23
V\u266b There's a name for \u266b
p24
aa(lp25
V\u266b all this sadness \u266b
p26
aa(lp27
V\u266b Like the ocean \u266b
p28
aa(lp29
V\u266b in between us \u266b
p30
aa(lp31
V\u266b I am blue \u266b
p32
aa(lp33
V\u266b Blue is a river \u266b
p34
aa(lp35
V\u266b Blue remembered \u266b
p36
aa(lp37
V\u266b Blue water \u266b
p38
aa(lp39
V\u266b running clear \u266b
p40
aa(lp41
V\u266b Blue like a planet \u266b
p42
aa(lp43
V\u266b to a spaceman \u266b
p44
aa(lp45
V\u266b Blue river \u266b
p46
aa(lp47
V\u266b of my tears \u266b
p48
aa(lp49
V(Fiddle and synthesizer)
p50
aa(lp51
V\u266b So I came here \u266b
p52
aa(lp53
V\u266b to the city \u266b
p54
aa(lp55
V\u266b where the dream burns \u266b
p56
aa(lp57
V\u266b like a furnace \u266b
p58
aa(lp59
V\u266b And I dazzled \u266b
p60
aa(lp61
V\u266b in these dark streets \u266b
p62
aa(lp63
V\u266b like a diamond \u266b
p64
aa(lp65
V\u266b in a coalface \u266b
p66
aa(lp67
V\u266b Then the cold wind \u266b
p68
aa(lp69
V\u266b from the islands \u266b
p70
aa(lp71
V\u266b blew a storm cloud \u266b
p72
aa(lp73
V\u266b across the new moon \u266b
p74
aa(lp75
V\u266b Like the gun smoke \u266b
p76
aa(lp77
V\u266b above the houses \u266b
p78
aa(lp79
V\u266b in my home \u266b
p80
aa(lp81
V\u266b Blue is a river \u266b
p82
aa(lp83
V\u266b Blue remembered \u266b
p84
aa(lp85
V\u266b Blue water \u266b
p86
aa(lp87
V\u266b running clear \u266b
p88
aa(lp89
V\u266b Blue like a planet \u266b
p90
aa(lp91
V\u266b to a spaceman \u266b
p92
aa(lp93
V\u266b Blue river \u266b
p94
aa(lp95
V\u266b of my tears \u266b
p96
aa(lp97
V\u266b Blue river \u266b
p98
aa(lp99
V\u266b of my tears \u266b
p100
aa(lp101
V(Fiddle and synthesizer)
p102
aa(lp103
V(Applause)
p104
aasS'id'
p105
I117
sS'title'
p106
VCape Breton fiddling in reel time
p107
s.