(dp0
S'transcript'
p1
(lp2
(lp3
V(Music)
p4
aa(lp5
V(Applause)
p6
aa(lp7
V(Applause)
p8
aa(lp9
V(Music)
p10
aa(lp11
V(Applause)
p12
aa(lp13
V(Music)
p14
aa(lp15
V(Applause)
p16
aa(lp17
VChris Anderson: You guys were amazing.
p18
aVThat's amazing.
p19
aV(Applause)
p20
aVYou just don't hear that every day.
p21
aa(lp22
V(Laughter)
p23
aa(lp24
VUsman, the official story is that
p25
aVyou learned to play the guitar
p26
aVby watching Jimmy Page on YouTube.
p27
aa(lp28
VUsman Riaz: Yes, that was the first one. And then I \u2014
p29
aVThat was the first thing I learned,
p30
aVand then I started progressing to other things.
p31
aVAnd I started watching Kaki King a lot,
p32
aVand she would always cite Preston Reed as a big influence,
p33
aVso then I started watching his videos,
p34
aVand it's very surreal right now to be \u2014
p35
aa(lp36
V(Laughter)
p37
aV(Applause)
p38
aa(lp39
VCA: Was that piece just now,
p40
aVthat was one of his songs that you learned, or how did that happen?
p41
aa(lp42
VUR: I'd never learned it before,
p43
aVbut he told me that we would be playing that on stage,
p44
aVso I was familiar with it, so that's why I had so much more fun learning it.
p45
aVAnd it finally happened, so ...
p46
aV(Laughter)
p47
aa(lp48
VCA: Preston, from your point of view,
p49
aVI mean, you invented this like 20 years ago, right?
p50
aVHow does it feel to see someone like this
p51
aVcome along taking your art and doing so much with it?
p52
aa(lp53
VPreston Reed: It's mind-blowing,
p54
aVand I feel really proud, really honored.
p55
aVAnd he's a wonderful musician, so it's cool.
p56
aa(lp57
V(Laughter)
p58
aa(lp59
VCA: I guess, I don't think there is like a one-minute other piece you guys can do?
p60
aVCan you? Do you jam? Do you have anything else?
p61
aa(lp62
VPR: We haven't prepared anything.
p63
aa(lp64
VCA: There isn't. I'll tell you what.
p65
aVIf you have another 30 or 40 seconds,
p66
aVand you have another 30 or 40 seconds,
p67
aVand we just see that, I just think \u2014
p68
aVI can feel it. We want to hear a little more.
p69
aVAnd if it goes horribly wrong, no worries.
p70
aa(lp71
V(Applause)
p72
aa(lp73
V(Laughter)
p74
aa(lp75
V(Music)
p76
aa(lp77
V(Applause)
p78
aasS'id'
p79
I1500
sS'title'
p80
VA young guitarist meets his hero
p81
s.