(dp0
S'transcript'
p1
(lp2
(lp3
V(Music)
p4
aa(lp5
V(Applause)
p6
aa(lp7
V(Music)
p8
aa(lp9
V(Music) (Applause)
p10
aa(lp11
V(Music) (Applause)
p12
aV(Applause)
p13
aa(lp14
VHerbie Hancock: Thank you.
p15
aVMarcus Miller. (Applause)
p16
aVHarvey Mason. (Applause)
p17
aa(lp18
VThank you. Thank you very much. (Applause)
p19
aasS'id'
p20
I729
sS'title'
p21
VAn all-star set
p22
s.