(dp0
S'transcript'
p1
(lp2
(lp3
VOkay.
p4
aa(lp5
V\u266b Strolling along in Central Park \u266b
p6
aa(lp7
V\u266b Everyone's out today \u266b
p8
aa(lp9
V\u266b The daisies and dogwoods are all in bloom \u266b
p10
aa(lp11
V\u266b Oh, what a glorious day \u266b
p12
aa(lp13
V\u266b For picnics and Frisbees and roller skaters, \u266b
p14
aa(lp15
V\u266b Friends and lovers and lonely sunbathers \u266b
p16
aa(lp17
V\u266b Everyone's out in merry Manhattan in January \u266b
p18
aa(lp19
V(Laughter) (Applause)
p20
aa(lp21
V\u266b I brought the iced tea; \u266b
p22
aa(lp23
V\u266b Did you bring the bug spray? \u266b
p24
aa(lp25
V\u266b The flies are the size of your head \u266b
p26
aa(lp27
V\u266b Next to the palm tree, \u266b
p28
aa(lp29
V\u266b Did you see the 'gators \u266b
p30
aa(lp31
V\u266b Looking happy and well fed? \u266b
p32
aa(lp33
V\u266b Everyone's out in merry Manhattan in January \u266b
p34
aa(lp35
V(Whistling)
p36
aa(lp37
VEveryone!
p38
aa(lp39
V(Whistling) (Laughter)
p40
aa(lp41
V\u266b My preacher said, \u266b
p42
aa(lp43
V\u266b Don't you worry \u266b
p44
aa(lp45
V\u266b The scientists have it all wrong \u266b
p46
aa(lp47
V\u266b And so, who cares it's winter here? \u266b
p48
aa(lp49
V\u266b And I have my halter-top on \u266b
p50
aa(lp51
V\u266b I have my halter-top on \u266b
p52
aa(lp53
V\u266b Everyone's out in merry Manhattan in January. \u266b
p54
aa(lp55
V(Applause)
p56
aa(lp57
VChris Anderson: Jill Sobule!
p58
aasS'id'
p59
I99
sS'title'
p60
VGlobal warming's theme song, "Manhattan in January"
p61
s.